; Function Attrs: mustprogress uwtable
define void @_ZN4toku12range_buffer8iterator4nextEv(ptr noundef nonnull align 8 dereferenceable(48) %0) local_unnamed_addr #1 align 2 {
  %2 = getelementptr inbounds nuw i8, ptr %0, i64 40
  %3 = load i64, ptr %2, align 8, !tbaa !38
  %4 = getelementptr inbounds nuw i8, ptr %0, i64 24
  %5 = load i64, ptr %4, align 8, !tbaa !36
  %6 = add i64 %5, %3
  store i64 %6, ptr %4, align 8, !tbaa !36
  store i64 0, ptr %2, align 8, !tbaa !38
  %7 = getelementptr inbounds nuw i8, ptr %0, i64 32
  %8 = load i64, ptr %7, align 8, !tbaa !37
  %.not = icmp ult i64 %6, %8
  br i1 %.not, label %14, label %9

9:                                                ; preds = %1
  %10 = tail call noundef zeroext i1 @_ZNK8memarena14chunk_iterator4moreEv(ptr noundef nonnull align 8 dereferenceable(12) %0)
  br i1 %10, label %11, label %14

11:                                               ; preds = %9
  tail call void @_ZN8memarena14chunk_iterator4nextEv(ptr noundef nonnull align 8 dereferenceable(12) %0)
  %12 = tail call noundef ptr @_ZNK8memarena14chunk_iterator7currentEPm(ptr noundef nonnull align 8 dereferenceable(48) %0, ptr noundef nonnull %7)
  %13 = getelementptr inbounds nuw i8, ptr %0, i64 16
  store ptr %12, ptr %13, align 8, !tbaa !34
  store i64 0, ptr %4, align 8, !tbaa !36
  br label %14

14:                                               ; preds = %9, %11, %1
  ret void
}